target datalayout = "e-m:e-p270:32:32-p271:32:32-p272:64:64-i64:64-i128:128-f80:128-n8:16:32:64-S128"
target triple = "x86_64-pc-linux-gnu"

%"class.folly::IPAddressV6" = type <{ %"union.folly::IPAddressV6::AddressStorage", i16, [2 x i8] }>
%"union.folly::IPAddressV6::AddressStorage" = type { %struct.in6_addr }
%struct.in6_addr = type { %union.anon }
%union.anon = type { [4 x i32] }

; Function Attrs: mustprogress nounwind uwtable
define linkonce_odr noundef ptr @_ZNK5folly11IPAddressV65bytesEv(ptr noundef nonnull align 4 dereferenceable(18) %0) #3 comdat align 2 {
  %2 = alloca ptr, align 8
  store ptr %0, ptr %2, align 8, !tbaa !7
  %3 = load ptr, ptr %2, align 8
  %4 = getelementptr inbounds nuw %"class.folly::IPAddressV6", ptr %3, i32 0, i32 0
  %5 = getelementptr inbounds nuw %struct.in6_addr, ptr %4, i32 0, i32 0
  %6 = getelementptr inbounds [16 x i8], ptr %5, i64 0, i64 0
  ret ptr %6
}

; Function Attrs: mustprogress nounwind uwtable
define noundef zeroext i1 @_ZNK5folly11IPAddressV612isIPv4MappedEv(ptr noundef nonnull align 4 dereferenceable(18) %0) #3 align 2 {
  %2 = alloca i1, align 1
  %3 = alloca ptr, align 8
  %4 = alloca ptr, align 8
  %5 = alloca i32, align 4
  %6 = alloca i32, align 4
  store ptr %0, ptr %3, align 8, !tbaa !7
  %7 = load ptr, ptr %3, align 8
  call void @llvm.lifetime.start.p0(i64 8, ptr %4) #13
  %8 = call noundef ptr @_ZNK5folly11IPAddressV65bytesEv(ptr noundef nonnull align 4 dereferenceable(18) %7)
  store ptr %8, ptr %4, align 8, !tbaa !28
  call void @llvm.lifetime.start.p0(i64 4, ptr %5) #13
  store i32 0, ptr %5, align 4, !tbaa !18
  br label %9

9:                                                ; preds = %23, %1
  %10 = load i32, ptr %5, align 4, !tbaa !18
  %11 = icmp slt i32 %10, 10
  br i1 %11, label %13, label %12

12:                                               ; preds = %9
  store i32 2, ptr %6, align 4
  br label %26

13:                                               ; preds = %9
  %14 = load ptr, ptr %4, align 8, !tbaa !28
  %15 = load i32, ptr %5, align 4, !tbaa !18
  %16 = sext i32 %15 to i64
  %17 = getelementptr inbounds i8, ptr %14, i64 %16
  %18 = load i8, ptr %17, align 1, !tbaa !22
  %19 = zext i8 %18 to i32
  %20 = icmp ne i32 %19, 0
  br i1 %20, label %21, label %22

21:                                               ; preds = %13
  store i1 false, ptr %2, align 1
  store i32 1, ptr %6, align 4
  br label %26

22:                                               ; preds = %13
  br label %23

23:                                               ; preds = %22
  %24 = load i32, ptr %5, align 4, !tbaa !18
  %25 = add nsw i32 %24, 1
  store i32 %25, ptr %5, align 4, !tbaa !18
  br label %9, !llvm.loop !407

26:                                               ; preds = %21, %12
  call void @llvm.lifetime.end.p0(i64 4, ptr %5) #13
  %27 = load i32, ptr %6, align 4
  switch i32 %27, label %42 [
    i32 2, label %28
  ]

28:                                               ; preds = %26
  %29 = load ptr, ptr %4, align 8, !tbaa !28
  %30 = getelementptr inbounds i8, ptr %29, i64 10
  %31 = load i8, ptr %30, align 1, !tbaa !22
  %32 = zext i8 %31 to i32
  %33 = icmp eq i32 %32, 255
  br i1 %33, label %34, label %40

34:                                               ; preds = %28
  %35 = load ptr, ptr %4, align 8, !tbaa !28
  %36 = getelementptr inbounds i8, ptr %35, i64 11
  %37 = load i8, ptr %36, align 1, !tbaa !22
  %38 = zext i8 %37 to i32
  %39 = icmp eq i32 %38, 255
  br label %40

40:                                               ; preds = %34, %28
  %41 = phi i1 [ false, %28 ], [ %39, %34 ]
  store i1 %41, ptr %2, align 1
  store i32 1, ptr %6, align 4
  br label %42

42:                                               ; preds = %40, %26
  call void @llvm.lifetime.end.p0(i64 8, ptr %4) #13
  %43 = load i1, ptr %2, align 1
  ret i1 %43
}