; Function Attrs: mustprogress nofree norecurse nosync nounwind willreturn memory(argmem: read) uwtable
define noundef zeroext i1 @_ZNK5folly11IPAddressV612isIPv4MappedEv(ptr noundef nonnull readonly align 4 captures(none) dereferenceable(18) %0) local_unnamed_addr #29 align 2 {
  br label %3

2:                                                ; preds = %3
  %indvars.iv.next = add nuw nsw i64 %indvars.iv, 1
  %exitcond = icmp eq i64 %indvars.iv.next, 10
  br i1 %exitcond, label %.critedge, label %3, !llvm.loop !7

3:                                                ; preds = %1, %2
  %indvars.iv = phi i64 [ 0, %1 ], [ %indvars.iv.next, %2 ]
  %4 = getelementptr inbounds nuw i8, ptr %0, i64 %indvars.iv
  %5 = load i8, ptr %4, align 1, !tbaa !9
  %.not = icmp eq i8 %5, 0
  br i1 %.not, label %2, label %.loopexit

.critedge:                                        ; preds = %2
  %6 = getelementptr inbounds nuw i8, ptr %0, i64 10
  %7 = load i8, ptr %6, align 2, !tbaa !9
  %8 = icmp eq i8 %7, -1
  br i1 %8, label %9, label %.loopexit

9:                                                ; preds = %.critedge
  %10 = getelementptr inbounds nuw i8, ptr %0, i64 11
  %11 = load i8, ptr %10, align 1, !tbaa !9
  %12 = icmp eq i8 %11, -1
  br label %.loopexit

.loopexit:                                        ; preds = %3, %.critedge, %9
  %.1 = phi i1 [ false, %.critedge ], [ %12, %9 ], [ false, %3 ]
  ret i1 %.1
}